; Function Attrs: nounwind uwtable
define internal i32 @test_CTX_set_get_serverPort() #1 {
  %1 = tail call fastcc ptr @set_up(ptr noundef nonnull @.str.10)
  %2 = icmp eq ptr %1, null
  br i1 %2, label %49, label %3

3:                                                ; preds = %0
  %4 = getelementptr i8, ptr %1, i64 8
  %.val = load ptr, ptr %4, align 8, !tbaa !4
  %5 = tail call i64 @ERR_peek_error() #6
  %6 = trunc i64 %5 to i32
  %7 = tail call i32 @test_int_eq(ptr noundef nonnull @.str, i32 noundef 753, ptr noundef nonnull @.str.62, ptr noundef nonnull @.str.63, i32 noundef %6, i32 noundef 0) #6
  %8 = tail call i32 @OSSL_CMP_CTX_set_serverPort(ptr noundef null, i32 noundef 1) #6
  %.not29.i = icmp eq i32 %8, 0
  br i1 %.not29.i, label %9, label %12

9:                                                ; preds = %3
  %.not.i = icmp ne i32 %7, 0
  %spec.select.i = zext i1 %.not.i to i32
  %10 = tail call i64 @ERR_peek_error() #6
  %11 = icmp eq i64 %10, 0
  br i1 %11, label %12, label %13

12:                                               ; preds = %9, %3
  tail call void (ptr, i32, ptr, ...) @test_error(ptr noundef nonnull @.str, i32 noundef 753, ptr noundef nonnull @.str.64) #6
  br label %13

13:                                               ; preds = %12, %9
  %.1.i = phi i32 [ 0, %12 ], [ %spec.select.i, %9 ]
  tail call void @ERR_clear_error() #6
  tail call void @ERR_new() #6
  tail call void @ERR_set_debug(ptr noundef nonnull @.str, i32 noundef 753, ptr noundef nonnull @__func__.OSSL_CMP_CTX_get_serverPort) #6
  tail call void (i32, i32, ptr, ...) @ERR_set_error(i32 noundef 58, i32 noundef 103, ptr noundef null) #6
  %14 = tail call i64 @ERR_peek_error() #6
  %15 = icmp eq i64 %14, 0
  br i1 %15, label %16, label %17

16:                                               ; preds = %13
  tail call void (ptr, i32, ptr, ...) @test_error(ptr noundef nonnull @.str, i32 noundef 753, ptr noundef nonnull @.str.65) #6
  br label %17

17:                                               ; preds = %16, %13
  %.2.i = phi i32 [ 0, %16 ], [ %.1.i, %13 ]
  tail call void @ERR_clear_error() #6
  %18 = icmp eq ptr %.val, null
  br i1 %18, label %OSSL_CMP_CTX_get_serverPort.exit.thread.i, label %OSSL_CMP_CTX_get_serverPort.exit.i

OSSL_CMP_CTX_get_serverPort.exit.thread.i:        ; preds = %17
  tail call void @ERR_new() #6
  tail call void @ERR_set_debug(ptr noundef nonnull @.str, i32 noundef 753, ptr noundef nonnull @__func__.OSSL_CMP_CTX_get_serverPort) #6
  tail call void (i32, i32, ptr, ...) @ERR_set_error(i32 noundef 58, i32 noundef 103, ptr noundef null) #6
  br label %22

OSSL_CMP_CTX_get_serverPort.exit.i:               ; preds = %17
  %19 = getelementptr inbounds nuw i8, ptr %.val, i64 72
  %20 = load i32, ptr %19, align 8, !tbaa !46
  %21 = icmp eq i32 %20, 0
  br i1 %21, label %23, label %22

22:                                               ; preds = %OSSL_CMP_CTX_get_serverPort.exit.i, %OSSL_CMP_CTX_get_serverPort.exit.thread.i
  tail call void (ptr, i32, ptr, ...) @test_error(ptr noundef nonnull @.str, i32 noundef 753, ptr noundef nonnull @.str.66) #6
  br label %23

23:                                               ; preds = %22, %OSSL_CMP_CTX_get_serverPort.exit.i
  %.3.i = phi i32 [ %.2.i, %OSSL_CMP_CTX_get_serverPort.exit.i ], [ 0, %22 ]
  %24 = tail call i32 @OSSL_CMP_CTX_set_serverPort(ptr noundef %.val, i32 noundef 1) #6
  %.not31.i = icmp eq i32 %24, 0
  br i1 %.not31.i, label %25, label %26

25:                                               ; preds = %23
  tail call void (ptr, i32, ptr, ...) @test_error(ptr noundef nonnull @.str, i32 noundef 753, ptr noundef nonnull @.str.67) #6
  br label %26

26:                                               ; preds = %25, %23
  %.4.i = phi i32 [ %.3.i, %23 ], [ 0, %25 ]
  br i1 %18, label %OSSL_CMP_CTX_get_serverPort.exit39.thread.i, label %OSSL_CMP_CTX_get_serverPort.exit39.i

OSSL_CMP_CTX_get_serverPort.exit39.thread.i:      ; preds = %26
  tail call void @ERR_new() #6
  tail call void @ERR_set_debug(ptr noundef nonnull @.str, i32 noundef 753, ptr noundef nonnull @__func__.OSSL_CMP_CTX_get_serverPort) #6
  tail call void (i32, i32, ptr, ...) @ERR_set_error(i32 noundef 58, i32 noundef 103, ptr noundef null) #6
  br label %29

OSSL_CMP_CTX_get_serverPort.exit39.i:             ; preds = %26
  %27 = getelementptr inbounds nuw i8, ptr %.val, i64 72
  %28 = load i32, ptr %27, align 8, !tbaa !46
  %.not32.i = icmp eq i32 %28, 1
  br i1 %.not32.i, label %30, label %29

29:                                               ; preds = %OSSL_CMP_CTX_get_serverPort.exit39.i, %OSSL_CMP_CTX_get_serverPort.exit39.thread.i
  tail call void (ptr, i32, ptr, ...) @test_error(ptr noundef nonnull @.str, i32 noundef 753, ptr noundef nonnull @.str.68) #6
  br label %30

30:                                               ; preds = %29, %OSSL_CMP_CTX_get_serverPort.exit39.i
  %.5.i = phi i32 [ 0, %29 ], [ %.4.i, %OSSL_CMP_CTX_get_serverPort.exit39.i ]
  %31 = tail call i32 @OSSL_CMP_CTX_set_serverPort(ptr noundef %.val, i32 noundef 1) #6
  %.not33.i = icmp eq i32 %31, 0
  br i1 %.not33.i, label %32, label %33

32:                                               ; preds = %30
  tail call void (ptr, i32, ptr, ...) @test_error(ptr noundef nonnull @.str, i32 noundef 753, ptr noundef nonnull @.str.69) #6
  br label %33

33:                                               ; preds = %32, %30
  %.6.i = phi i32 [ %.5.i, %30 ], [ 0, %32 ]
  br i1 %18, label %.thread28.i, label %OSSL_CMP_CTX_get_serverPort.exit41.i

OSSL_CMP_CTX_get_serverPort.exit41.i:             ; preds = %33
  %34 = getelementptr inbounds nuw i8, ptr %.val, i64 72
  %35 = load i32, ptr %34, align 8, !tbaa !46
  switch i32 %35, label %OSSL_CMP_CTX_get_serverPort.exit43.i [
    i32 0, label %36
    i32 1, label %tear_down.exit
  ]

36:                                               ; preds = %OSSL_CMP_CTX_get_serverPort.exit41.i
  tail call void (ptr, i32, ptr, ...) @test_error(ptr noundef nonnull @.str, i32 noundef 753, ptr noundef nonnull @.str.70) #6
  br label %OSSL_CMP_CTX_get_serverPort.exit43.i

.thread28.i:                                      ; preds = %33
  tail call void @ERR_new() #6
  tail call void @ERR_set_debug(ptr noundef nonnull @.str, i32 noundef 753, ptr noundef nonnull @__func__.OSSL_CMP_CTX_get_serverPort) #6
  tail call void (i32, i32, ptr, ...) @ERR_set_error(i32 noundef 58, i32 noundef 103, ptr noundef null) #6
  tail call void (ptr, i32, ptr, ...) @test_error(ptr noundef nonnull @.str, i32 noundef 753, ptr noundef nonnull @.str.71) #6
  tail call void @ERR_new() #6
  tail call void @ERR_set_debug(ptr noundef nonnull @.str, i32 noundef 753, ptr noundef nonnull @__func__.OSSL_CMP_CTX_get_serverPort) #6
  tail call void (i32, i32, ptr, ...) @ERR_set_error(i32 noundef 58, i32 noundef 103, ptr noundef null) #6
  br label %tear_down.exit

OSSL_CMP_CTX_get_serverPort.exit43.i:             ; preds = %36, %OSSL_CMP_CTX_get_serverPort.exit41.i
  tail call void (ptr, i32, ptr, ...) @test_error(ptr noundef nonnull @.str, i32 noundef 753, ptr noundef nonnull @.str.71) #6
  %.pr.i = load i32, ptr %34, align 8, !tbaa !46
  %37 = icmp eq i32 %.pr.i, 0
  br i1 %37, label %38, label %39

38:                                               ; preds = %OSSL_CMP_CTX_get_serverPort.exit43.i
  tail call void (ptr, i32, ptr, ...) @test_error(ptr noundef nonnull @.str, i32 noundef 753, ptr noundef nonnull @.str.72) #6
  br label %39

39:                                               ; preds = %38, %OSSL_CMP_CTX_get_serverPort.exit43.i
  %.not35.i = icmp eq i32 %.pr.i, %35
  br i1 %.not35.i, label %tear_down.exit, label %40

40:                                               ; preds = %39
  tail call void (ptr, i32, ptr, ...) @test_error(ptr noundef nonnull @.str, i32 noundef 753, ptr noundef nonnull @.str.73) #6
  br label %tear_down.exit

tear_down.exit:                                   ; preds = %OSSL_CMP_CTX_get_serverPort.exit41.i, %.thread28.i, %39, %40
  %.10.i = phi i32 [ 0, %40 ], [ 0, %39 ], [ 0, %.thread28.i ], [ %.6.i, %OSSL_CMP_CTX_get_serverPort.exit41.i ]
  %41 = tail call i64 @ERR_peek_error() #6
  %42 = trunc i64 %41 to i32
  %43 = tail call i32 @test_int_eq(ptr noundef nonnull @.str, i32 noundef 753, ptr noundef nonnull @.str.62, ptr noundef nonnull @.str.63, i32 noundef %42, i32 noundef 0) #6
  %.not36.i = icmp ne i32 %43, 0
  %44 = icmp ne i32 %.10.i, 0
  %45 = select i1 %.not36.i, i1 %44, i1 false
  %46 = zext i1 %45 to i32
  %47 = tail call i32 @test_true(ptr noundef nonnull @.str, i32 noundef 753, ptr noundef nonnull @.str.74, i32 noundef %46) #6
  %48 = load ptr, ptr %4, align 8, !tbaa !4
  tail call void @OSSL_CMP_CTX_free(ptr noundef %48) #6
  tail call void @CRYPTO_free(ptr noundef nonnull %1, ptr noundef nonnull @.str, i32 noundef 25) #6
  br label %49

49:                                               ; preds = %0, %tear_down.exit
  %.05 = phi i32 [ %47, %tear_down.exit ], [ 0, %0 ]
  ret i32 %.05
}